target datalayout = "e-m:e-p270:32:32-p271:32:32-p272:64:64-i64:64-i128:128-f80:128-n8:16:32:64-S128"
target triple = "x86_64-pc-linux-gnu"

%struct._packet_info = type { ptr, ptr, i32, i32, %struct.nstime_t, %struct.nstime_t, %struct.nstime_t, i8, ptr, ptr, ptr, ptr, %struct._address, %struct._address, %struct._address, %struct._address, %struct._address, %struct._address, i32, ptr, i8, [3 x i8], %struct.anon.1, i32, i32, i32, i32, ptr, i8, ptr, ptr, i16, i16, i32, i32, i16, i32, i32, ptr, ptr, ptr, i8, i8, i16, i16, i16, i32, i16, i16, ptr, ptr, ptr, ptr, ptr, i32, i32 }
%struct.nstime_t = type { i64, i32 }
%struct._address = type { i32, i32, ptr, ptr }
%struct.anon.1 = type { i8, [3 x i8] }
%struct._proto_node = type { ptr, ptr, ptr, ptr, ptr, ptr, ptr }
%struct.field_info = type { ptr, i32, i32, i32, i32, i32, i32, ptr, ptr, ptr, i32, i32 }

@hf_zb_direct_char_identify = internal global i32 0, align 4
@hf_zb_direct_comm_identify_time = internal global i32 0, align 4
@serv_comm_uuid = internal constant [16 x i8] c"\FB4\9B_\80\00\00\80\00\10\00\00\F7\FF\00\00", align 16
@char_identify_uuid = internal constant [16 x i8] c"a:3'\1CIc\B1\1CB\07\00}7rp", align 16
@.str.138 = private unnamed_addr constant [17 x i8] c"IDENTIFY Request\00", align 1
@.str.139 = private unnamed_addr constant [16 x i8] c": start for %us\00", align 1
@.str.140 = private unnamed_addr constant [7 x i8] c": stop\00", align 1

; Function Attrs: inlinehint nounwind null_pointer_is_valid sspstrong uwtable
define internal void @proto_item_set_generated(ptr noundef %0) #9 {
  %2 = alloca ptr, align 8
  store ptr %0, ptr %2, align 8
  %3 = load ptr, ptr %2, align 8
  %4 = icmp ne ptr %3, null
  br i1 %4, label %5, label %24

5:                                                ; preds = %1
  br label %6

6:                                                ; preds = %5
  %7 = load ptr, ptr %2, align 8
  %8 = getelementptr inbounds nuw %struct._proto_node, ptr %7, i32 0, i32 5
  %9 = load ptr, ptr %8, align 8
  %10 = icmp ne ptr %9, null
  br i1 %10, label %11, label %22

11:                                               ; preds = %6
  %12 = load ptr, ptr %2, align 8
  %13 = getelementptr inbounds nuw %struct._proto_node, ptr %12, i32 0, i32 5
  %14 = load ptr, ptr %13, align 8
  %15 = getelementptr inbounds nuw %struct.field_info, ptr %14, i32 0, i32 6
  %16 = load i32, ptr %15, align 4
  %17 = or i32 %16, 2
  %18 = load ptr, ptr %2, align 8
  %19 = getelementptr inbounds nuw %struct._proto_node, ptr %18, i32 0, i32 5
  %20 = load ptr, ptr %19, align 8
  %21 = getelementptr inbounds nuw %struct.field_info, ptr %20, i32 0, i32 6
  store i32 %17, ptr %21, align 4
  br label %22

22:                                               ; preds = %11, %6
  br label %23

23:                                               ; preds = %22
  br label %24

24:                                               ; preds = %23, %1
  ret void
}

; Function Attrs: null_pointer_is_valid sspstrong uwtable
define internal i32 @dissect_zb_direct_identify(ptr noundef %0, ptr noundef %1, ptr noundef %2, ptr noundef %3) #0 {
  %5 = alloca ptr, align 8
  %6 = alloca ptr, align 8
  %7 = alloca ptr, align 8
  %8 = alloca ptr, align 8
  %9 = alloca ptr, align 8
  %10 = alloca i32, align 4
  %11 = alloca i32, align 4
  store ptr %0, ptr %5, align 8
  store ptr %1, ptr %6, align 8
  store ptr %2, ptr %7, align 8
  store ptr %3, ptr %8, align 8
  call void @llvm.lifetime.start.p0(i64 8, ptr %9) #13
  call void @llvm.lifetime.start.p0(i64 4, ptr %10) #13
  store i32 0, ptr %10, align 4
  %12 = load ptr, ptr %6, align 8
  %13 = load ptr, ptr %8, align 8
  %14 = load i32, ptr %10, align 4
  %15 = call i32 @dissect_zb_direct_common(ptr noundef %5, ptr noundef %12, ptr noundef %7, ptr noundef %13, i32 noundef %14, ptr noundef @serv_comm_uuid, ptr noundef @char_identify_uuid)
  store i32 %15, ptr %10, align 4
  %16 = load ptr, ptr %7, align 8
  %17 = load i32, ptr @hf_zb_direct_char_identify, align 4
  %18 = load ptr, ptr %5, align 8
  %19 = load i32, ptr %10, align 4
  %20 = call ptr @proto_tree_add_item(ptr noundef %16, i32 noundef %17, ptr noundef %18, i32 noundef %19, i32 noundef 0, i32 noundef 0)
  store ptr %20, ptr %9, align 8
  %21 = load ptr, ptr %9, align 8
  call void @proto_item_set_generated(ptr noundef %21)
  %22 = load ptr, ptr %6, align 8
  %23 = getelementptr inbounds nuw %struct._packet_info, ptr %22, i32 0, i32 1
  %24 = load ptr, ptr %23, align 8
  call void @col_set_str(ptr noundef %24, i32 noundef 25, ptr noundef @.str.138)
  %25 = load i32, ptr %10, align 4
  %26 = load ptr, ptr %5, align 8
  %27 = call i32 @tvb_reported_length(ptr noundef %26)
  %28 = icmp ult i32 %25, %27
  br i1 %28, label %29, label %49

29:                                               ; preds = %4
  call void @llvm.lifetime.start.p0(i64 4, ptr %11) #13
  %30 = load ptr, ptr %7, align 8
  %31 = load i32, ptr @hf_zb_direct_comm_identify_time, align 4
  %32 = load ptr, ptr %5, align 8
  %33 = load i32, ptr %10, align 4
  %34 = call ptr @proto_tree_add_item_ret_uint(ptr noundef %30, i32 noundef %31, ptr noundef %32, i32 noundef %33, i32 noundef 2, i32 noundef -2147483648, ptr noundef %11)
  %35 = load i32, ptr %10, align 4
  %36 = add i32 %35, 2
  store i32 %36, ptr %10, align 4
  %37 = load i32, ptr %11, align 4
  %38 = icmp ugt i32 %37, 0
  br i1 %38, label %39, label %44

39:                                               ; preds = %29
  %40 = load ptr, ptr %6, align 8
  %41 = getelementptr inbounds nuw %struct._packet_info, ptr %40, i32 0, i32 1
  %42 = load ptr, ptr %41, align 8
  %43 = load i32, ptr %11, align 4
  call void (ptr, i32, ptr, ...) @col_append_fstr(ptr noundef %42, i32 noundef 25, ptr noundef @.str.139, i32 noundef %43)
  br label %48

44:                                               ; preds = %29
  %45 = load ptr, ptr %6, align 8
  %46 = getelementptr inbounds nuw %struct._packet_info, ptr %45, i32 0, i32 1
  %47 = load ptr, ptr %46, align 8
  call void @col_append_str(ptr noundef %47, i32 noundef 25, ptr noundef @.str.140)
  br label %48

48:                                               ; preds = %44, %39
  call void @llvm.lifetime.end.p0(i64 4, ptr %11) #13
  br label %49

49:                                               ; preds = %48, %4
  %50 = load i32, ptr %10, align 4
  call void @llvm.lifetime.end.p0(i64 4, ptr %10) #13
  call void @llvm.lifetime.end.p0(i64 8, ptr %9) #13
  ret i32 %50
}