; Function Attrs: null_pointer_is_valid sspstrong uwtable
define internal noundef i32 @dissect_zb_direct_identify(ptr noundef %0, ptr noundef %1, ptr noundef %2, ptr readnone captures(none) %3) #0 {
  %5 = alloca ptr, align 8
  %6 = alloca ptr, align 8
  %7 = alloca i32, align 4
  store ptr %0, ptr %5, align 8
  store ptr %2, ptr %6, align 8
  %8 = call fastcc i32 @dissect_zb_direct_common(ptr noundef nonnull %5, ptr noundef %1, ptr noundef nonnull %6, ptr noundef nonnull @serv_comm_uuid, ptr noundef nonnull @char_identify_uuid)
  %9 = load ptr, ptr %6, align 8
  %10 = load i32, ptr @hf_zb_direct_char_identify, align 4
  %11 = load ptr, ptr %5, align 8
  %12 = tail call ptr @proto_tree_add_item(ptr noundef %9, i32 noundef %10, ptr noundef %11, i32 noundef %8, i32 noundef 0, i32 noundef 0)
  %.not.i = icmp eq ptr %12, null
  br i1 %.not.i, label %proto_item_set_generated.exit, label %13

13:                                               ; preds = %4
  %14 = getelementptr inbounds nuw i8, ptr %12, i64 40
  %15 = load ptr, ptr %14, align 8
  %.not5.i = icmp eq ptr %15, null
  br i1 %.not5.i, label %proto_item_set_generated.exit, label %16

16:                                               ; preds = %13
  %17 = getelementptr inbounds nuw i8, ptr %15, i64 28
  %18 = load i32, ptr %17, align 4
  %19 = or i32 %18, 2
  store i32 %19, ptr %17, align 4
  br label %proto_item_set_generated.exit

proto_item_set_generated.exit:                    ; preds = %4, %13, %16
  %20 = getelementptr inbounds nuw i8, ptr %1, i64 8
  %21 = load ptr, ptr %20, align 8
  tail call void @col_set_str(ptr noundef %21, i32 noundef 25, ptr noundef nonnull @.str.138)
  %22 = tail call i32 @tvb_reported_length(ptr noundef %11)
  %23 = icmp ult i32 %8, %22
  br i1 %23, label %24, label %33

24:                                               ; preds = %proto_item_set_generated.exit
  call void @llvm.lifetime.start.p0(i64 4, ptr nonnull %7) #13
  %25 = load i32, ptr @hf_zb_direct_comm_identify_time, align 4
  %26 = call ptr @proto_tree_add_item_ret_uint(ptr noundef %9, i32 noundef %25, ptr noundef %11, i32 noundef %8, i32 noundef 2, i32 noundef -2147483648, ptr noundef nonnull %7)
  %27 = add i32 %8, 2
  %28 = load i32, ptr %7, align 4
  %.not = icmp eq i32 %28, 0
  %29 = load ptr, ptr %20, align 8
  br i1 %.not, label %31, label %30

30:                                               ; preds = %24
  call void (ptr, i32, ptr, ...) @col_append_fstr(ptr noundef %29, i32 noundef 25, ptr noundef nonnull @.str.139, i32 noundef %28)
  br label %32

31:                                               ; preds = %24
  call void @col_append_str(ptr noundef %29, i32 noundef 25, ptr noundef nonnull @.str.140)
  br label %32

32:                                               ; preds = %31, %30
  call void @llvm.lifetime.end.p0(i64 4, ptr nonnull %7) #13
  br label %33

33:                                               ; preds = %32, %proto_item_set_generated.exit
  %.0 = phi i32 [ %27, %32 ], [ %8, %proto_item_set_generated.exit ]
  ret i32 %.0
}